   9EC8:0000 0E            PUSH    CS
   9EC8:0001 1F            POP DS
   9EC8:0002 E80000        CALL    0005
   9EC8:0005 5E            POP SI
   9EC8:0006 83EE05        SUB SI,+05
   9EC8:0009 56            PUSH    SI
   9EC8:000A 06            PUSH    ES
   9EC8:000B B87F18        MOV AX,187F
   9EC8:000E BB5344        MOV BX,4453
   9EC8:0011 CD21          INT 21
   9EC8:0013 81FBA187      CMP BX,87A1
   9EC8:0017 753A          JNZ 0053
   9EC8:0019 07            POP ES
   9EC8:001A 5E            POP SI
   9EC8:001B 0E            PUSH    CS
   9EC8:001C 1F            POP DS
   9EC8:001D 8B84870E      MOV AX,[SI+0E87]
   9EC8:0021 E8880B        CALL    0BAC
   9EC8:0024 740D          JZ  0033
   9EC8:0026 48            DEC AX
   9EC8:0027 BF0001        MOV DI,0100
   9EC8:002A 57            PUSH    DI
   9EC8:002B FC            CLD
   9EC8:002C AB            STOSW
   9EC8:002D 8A84890E      MOV AL,[SI+0E89]
   9EC8:0031 AA            STOSB
   9EC8:0032 C3            RET
   9EC8:0033 8CC0          MOV AX,ES
   9EC8:0035 051000        ADD AX,0010
   9EC8:0038 0384950E      ADD AX,[SI+0E95]
   9EC8:003C 8ED0          MOV SS,AX
   9EC8:003E 8BA4970E      MOV SP,[SI+0E97]
   9EC8:0042 8CC0          MOV AX,ES
   9EC8:0044 051000        ADD AX,0010
   9EC8:0047 03849D0E      ADD AX,[SI+0E9D]
   9EC8:004B 50            PUSH    AX
   9EC8:004C FFB49B0E      PUSH    [SI+0E9B]
   9EC8:0050 06            PUSH    ES
   9EC8:0051 1F            POP DS
   9EC8:0052 CB            RETF
   9EC8:0053 8CC0          MOV AX,ES
   9EC8:0055 48            DEC AX
   9EC8:0056 E81E00        CALL    0077
   9EC8:0059 E83200        CALL    008E
   9EC8:005C 72BB          JB  0019
   9EC8:005E 8ED9          MOV DS,CX
   9EC8:0060 B85103        MOV AX,0351
   9EC8:0063 8706A800      XCHG    AX,[00A8]
   9EC8:0067 26            ES:
   9EC8:0068 A33A04        MOV [043A],AX
   9EC8:006B 8CC0          MOV AX,ES
   9EC8:006D 8706AA00      XCHG    AX,[00AA]
   9EC8:0071 26            ES:
   9EC8:0072 A33C04        MOV [043C],AX
   9EC8:0075 EBA2          JMP 0019
   9EC8:0077 33FF          XOR DI,DI
   9EC8:0079 8ED8          MOV DS,AX
   9EC8:007B 803D4D        CMP BYTE PTR [DI],4D
   9EC8:007E 7405          JZ  0085
   9EC8:0080 803D5A        CMP BYTE PTR [DI],5A
   9EC8:0083 7508          JNZ 008D
   9EC8:0085 8BD8          MOV BX,AX
   9EC8:0087 034503        ADD AX,[DI+03]
   9EC8:008A 40            INC AX
   9EC8:008B EBEA          JMP 0077
   9EC8:008D C3            RET
   9EC8:008E 8EDB          MOV DS,BX
   9EC8:0090 8B4503        MOV AX,[DI+03]
   9EC8:0093 2D3801        SUB AX,0138
   9EC8:0096 720E          JB  00A6
   9EC8:0098 894503        MOV [DI+03],AX
   9EC8:009B 03D8          ADD BX,AX
   9EC8:009D 43            INC BX
   9EC8:009E 8EC3          MOV ES,BX
   9EC8:00A0 B9C70E        MOV CX,0EC7
   9EC8:00A3 F3            REPZ
   9EC8:00A4 2E            CS:
   9EC8:00A5 A4            MOVSB
   9EC8:00A6 C3            RET
   9EC8:00A7 FA            CLI
   9EC8:00A8 33DB          XOR BX,BX
   9EC8:00AA 8ED3          MOV SS,BX
   9EC8:00AC BC007C        MOV SP,7C00
   9EC8:00AF 8EC4          MOV ES,SP
   9EC8:00B1 B80802        MOV AX,0208
   9EC8:00B4 B90150        MOV CX,5001
   9EC8:00B7 BA0000        MOV DX,0000
   9EC8:00BA CD13          INT 13
   9EC8:00BC 7200          JB  00BE
   9EC8:00BE 06            PUSH    ES
   9EC8:00BF 68            DB  68
   9EC8:00C0 C3            RET
   9EC8:00C1 00CB          ADD BL,CL
   9EC8:00C3 E82701        CALL    01ED
   9EC8:00C6 830EA800FF    OR  WORD PTR [00A8],-01
   9EC8:00CB 871E4C00      XCHG    BX,[004C]
   9EC8:00CF 2E            CS:
   9EC8:00D0 891EF800      MOV [00F8],BX
   9EC8:00D4 8CC0          MOV AX,ES
   9EC8:00D6 87064E00      XCHG    AX,[004E]
   9EC8:00DA 0E            PUSH    CS
   9EC8:00DB 1F            POP DS
   9EC8:00DC A3FA00        MOV [00FA],AX
   9EC8:00DF C606FF003C    MOV BYTE PTR [00FF],3C
   9EC8:00E4 C60604013C    MOV BYTE PTR [0104],3C
   9EC8:00E9 C6065805E8    MOV BYTE PTR [0558],E8
   9EC8:00EE CD19          INT 19
   9EC8:00F0 9C            PUSHF
   9EC8:00F1 FA            CLI
   9EC8:00F2 0E            PUSH    CS
   9EC8:00F3 E80100        CALL    00F7
   9EC8:00F6 C3            RET
   9EC8:00F7 EAD4B300F0    JMP F000:B3D4
   9EC8:00FC 83C406        ADD SP,+06
   9EC8:00FF EB3D          JMP 013E
   9EC8:0101 60            DB  60
   9EC8:0102 1E            PUSH    DS
   9EC8:0103 06            PUSH    ES
   9EC8:0104 EB23          JMP 0129
   9EC8:0106 6A            DB  6A
   9EC8:0107 001F          ADD [BX],BL
   9EC8:0109 C41EA800      LES BX,[00A8]
   9EC8:010D 26            ES:
   9EC8:010E 803FCF        CMP BYTE PTR [BX],CF
   9EC8:0111 7514          JNZ 0127
   9EC8:0113 2E            CS:
   9EC8:0114 891E3A04      MOV [043A],BX
   9EC8:0118 2E            CS:
   9EC8:0119 8C063C04      MOV [043C],ES
   9EC8:011D C706A8008603  MOV WORD PTR [00A8],0386
   9EC8:0123 8C0EAA00      MOV [00AA],CS
   9EC8:0127 EB12          JMP 013B
   9EC8:0129 B80312        MOV AX,1203
   9EC8:012C CD2F          INT 2F
   9EC8:012E 8CD8          MOV AX,DS
   9EC8:0130 3D2901        CMP AX,0129
   9EC8:0133 7406          JZ  013B
   9EC8:0135 2E            CS:
   9EC8:0136 C60604013C    MOV BYTE PTR [0104],3C
   9EC8:013B 07            POP ES
   9EC8:013C 1F            POP DS
   9EC8:013D 61            DB  61
   9EC8:013E 80FC02        CMP AH,02
   9EC8:0141 72B4          JB  00F7
   9EC8:0143 80FC03        CMP AH,03
   9EC8:0146 77AF          JA  00F7
   9EC8:0148 83F901        CMP CX,+01
   9EC8:014B 75AA          JNZ 00F7
   9EC8:014D 0AF6          OR  DH,DH
   9EC8:014F 75A6          JNZ 00F7
   9EC8:0151 80FA80        CMP DL,80
   9EC8:0154 77A1          JA  00F7
   9EC8:0156 E897FF        CALL    00F0
   9EC8:0159 7235          JB  0190
   9EC8:015B 60            DB  60
   9EC8:015C 1E            PUSH    DS
   9EC8:015D 06            PUSH    ES
   9EC8:015E 9C            PUSHF
   9EC8:015F 06            PUSH    ES
   9EC8:0160 8BF3          MOV SI,BX
   9EC8:0162 06            PUSH    ES
   9EC8:0163 1F            POP DS
   9EC8:0164 BF7711        MOV DI,1177
   9EC8:0167 0E            PUSH    CS
   9EC8:0168 07            POP ES
   9EC8:0169 B90001        MOV CX,0100
   9EC8:016C F3            REPZ
   9EC8:016D A5            MOVSW
   9EC8:016E 0E            PUSH    CS
   9EC8:016F 1F            POP DS
   9EC8:0170 BF7711        MOV DI,1177
   9EC8:0173 817D468EC4    CMP WORD PTR [DI+46],C48E
   9EC8:0178 07            POP ES
   9EC8:0179 7518          JNZ 0193
   9EC8:017B B80102        MOV AX,0201
   9EC8:017E 8B4D4C        MOV CX,[DI+4C]
   9EC8:0181 8A7550        MOV DH,[DI+50]
   9EC8:0184 80C108        ADD CL,08
   9EC8:0187 9D            POPF
   9EC8:0188 E865FF        CALL    00F0
   9EC8:018B 9C            PUSHF
   9EC8:018C 9D            POPF
   9EC8:018D 07            POP ES
   9EC8:018E 1F            POP DS
   9EC8:018F 61            DB  61
   9EC8:0190 CA0200        RETF    0002
   9EC8:0193 0E            PUSH    CS
   9EC8:0194 07            POP ES
   9EC8:0195 B90500        MOV CX,0005
   9EC8:0198 0AD2          OR  DL,DL
   9EC8:019A 7812          JS  01AE
   9EC8:019C B80A05        MOV AX,050A
   9EC8:019F B550          MOV CH,50
   9EC8:01A1 32F6          XOR DH,DH
   9EC8:01A3 BB4D0E        MOV BX,0E4D
   9EC8:01A6 E847FF        CALL    00F0
   9EC8:01A9 7240          JB  01EB
   9EC8:01AB B90150        MOV CX,5001
   9EC8:01AE 890EB500      MOV [00B5],CX
   9EC8:01B2 52            PUSH    DX
   9EC8:01B3 80E280        AND DL,80
   9EC8:01B6 8916B800      MOV [00B8],DX
   9EC8:01BA 5A            POP DX
   9EC8:01BB B80803        MOV AX,0308
   9EC8:01BE 33DB          XOR BX,BX
   9EC8:01C0 E82DFF        CALL    00F0
   9EC8:01C3 7226          JB  01EB
   9EC8:01C5 B80103        MOV AX,0301
   9EC8:01C8 BB7711        MOV BX,1177
   9EC8:01CB 80C108        ADD CL,08
   9EC8:01CE E81FFF        CALL    00F0
   9EC8:01D1 7218          JB  01EB
   9EC8:01D3 C707EB3C      MOV WORD PTR [BX],3CEB
   9EC8:01D7 BEA700        MOV SI,00A7
   9EC8:01DA 8D7F3E        LEA DI,[BX+3E]
   9EC8:01DD B91C00        MOV CX,001C
   9EC8:01E0 F3            REPZ
   9EC8:01E1 A4            MOVSB
   9EC8:01E2 B80103        MOV AX,0301
   9EC8:01E5 B90100        MOV CX,0001
   9EC8:01E8 E805FF        CALL    00F0
   9EC8:01EB EB9F          JMP 018C
   9EC8:01ED 33F6          XOR SI,SI
   9EC8:01EF B800F0        MOV AX,F000
   9EC8:01F2 8ED8          MOV DS,AX
   9EC8:01F4 8EC0          MOV ES,AX
   9EC8:01F6 4E            DEC SI
   9EC8:01F7 741F          JZ  0218
   9EC8:01F9 803CCD        CMP BYTE PTR [SI],CD
   9EC8:01FC 75F8          JNZ 01F6
   9EC8:01FE 3A4401        CMP AL,[SI+01]
   9EC8:0201 73F3          JNB 01F6
   9EC8:0203 807C01E0      CMP BYTE PTR [SI+01],E0
   9EC8:0207 73ED          JNB 01F6
   9EC8:0209 864401        XCHG    AL,[SI+01]
   9EC8:020C 864401        XCHG    AL,[SI+01]
   9EC8:020F 3A4401        CMP AL,[SI+01]
   9EC8:0212 75E2          JNZ 01F6
   9EC8:0214 8BDE          MOV BX,SI
   9EC8:0216 EBDE          JMP 01F6
   9EC8:0218 8EDE          MOV DS,SI
   9EC8:021A 3C80          CMP AL,80
   9EC8:021C 720C          JB  022A
   9EC8:021E 2E            CS:
   9EC8:021F C606FE0006    MOV BYTE PTR [00FE],06
   9EC8:0224 B404          MOV AH,04
   9EC8:0226 F6E4          MUL AH
   9EC8:0228 EB14          JMP 023E
   9EC8:022A 2E            CS:
   9EC8:022B C606FE0000    MOV BYTE PTR [00FE],00
   9EC8:0230 6A            DB  6A
   9EC8:0231 001F          ADD [BX],BL
   9EC8:0233 1E            PUSH    DS
   9EC8:0234 07            POP ES
   9EC8:0235 BBFB04        MOV BX,04FB
   9EC8:0238 C607EA        MOV BYTE PTR [BX],EA
   9EC8:023B B8FC04        MOV AX,04FC
   9EC8:023E 2E            CS:
   9EC8:023F A34502        MOV [0245],AX
   9EC8:0242 EB00          JMP 0244
   9EC8:0244 BEF802        MOV SI,02F8
   9EC8:0247 C704FC00      MOV WORD PTR [SI],00FC
   9EC8:024B 8C4C02        MOV [SI+02],CS
   9EC8:024E C3            RET
   9EC8:024F 50            PUSH    AX
   9EC8:0250 51            PUSH    CX
   9EC8:0251 52            PUSH    DX
   9EC8:0252 B91000        MOV CX,0010
   9EC8:0255 F7E1          MUL CX
   9EC8:0257 8BCA          MOV CX,DX
   9EC8:0259 92            XCHG    DX,AX
   9EC8:025A B80700        MOV AX,0007
   9EC8:025D CD31          INT 31
   9EC8:025F 5A            POP DX
   9EC8:0260 59            POP CX
   9EC8:0261 58            POP AX
   9EC8:0262 C3            RET
   9EC8:0263 60            DB  60
   9EC8:0264 1E            PUSH    DS
   9EC8:0265 06            PUSH    ES
   9EC8:0266 E80000        CALL    0269
   9EC8:0269 5E            POP SI
   9EC8:026A 81EE6902      SUB SI,0269
   9EC8:026E B87F18        MOV AX,187F
   9EC8:0271 BB5344        MOV BX,4453
   9EC8:0274 CD21          INT 21
   9EC8:0276 81FBA187      CMP BX,87A1
   9EC8:027A 7503          JNZ 027F
   9EC8:027C E9A900        JMP 0328
   9EC8:027F 33C0          XOR AX,AX
   9EC8:0281 B90100        MOV CX,0001
   9EC8:0284 CD31          INT 31
   9EC8:0286 93            XCHG    BX,AX
   9EC8:0287 B80800        MOV AX,0008
   9EC8:028A CD31          INT 31
   9EC8:028C 40            INC AX
   9EC8:028D B1F2          MOV CL,F2
   9EC8:028F CD31          INT 31
   9EC8:0291 8EDB          MOV DS,BX
   9EC8:0293 B452          MOV AH,52
   9EC8:0295 CD21          INT 21
   9EC8:0297 26            ES:
   9EC8:0298 8B47FE        MOV AX,[BX-02]
   9EC8:029B 33FF          XOR DI,DI
   9EC8:029D 33D2          XOR DX,DX
   9EC8:029F 8CDB          MOV BX,DS
   9EC8:02A1 E8ABFF        CALL    024F
   9EC8:02A4 803D4D        CMP BYTE PTR [DI],4D
   9EC8:02A7 7405          JZ  02AE
   9EC8:02A9 803D5A        CMP BYTE PTR [DI],5A
   9EC8:02AC 7521          JNZ 02CF
   9EC8:02AE 8BE8          MOV BP,AX
   9EC8:02B0 8B4508        MOV AX,[DI+08]
   9EC8:02B3 0D2020        OR  AX,2020
   9EC8:02B6 3D7769        CMP AX,6977
   9EC8:02B9 750C          JNZ 02C7
   9EC8:02BB 8B450A        MOV AX,[DI+0A]
   9EC8:02BE 0C20          OR  AL,20
   9EC8:02C0 3D6E00        CMP AX,006E
   9EC8:02C3 7502          JNZ 02C7
   9EC8:02C5 8BD5          MOV DX,BP
   9EC8:02C7 8BC5          MOV AX,BP
   9EC8:02C9 034503        ADD AX,[DI+03]
   9EC8:02CC 40            INC AX
   9EC8:02CD EBD0          JMP 029F
   9EC8:02CF 95            XCHG    BP,AX
   9EC8:02D0 E87CFF        CALL    024F
   9EC8:02D3 816D033801    SUB WORD PTR [DI+03],0138
   9EC8:02D8 034503        ADD AX,[DI+03]
   9EC8:02DB 40            INC AX
   9EC8:02DC E870FF        CALL    024F
   9EC8:02DF 8EC3          MOV ES,BX
   9EC8:02E1 95            XCHG    BP,AX
   9EC8:02E2 B80A00        MOV AX,000A
   9EC8:02E5 8CCB          MOV BX,CS
   9EC8:02E7 CD31          INT 31
   9EC8:02E9 8ED8          MOV DS,AX
   9EC8:02EB B97D0E        MOV CX,0E7D
   9EC8:02EE F3            REPZ
   9EC8:02EF A4            MOVSB
   9EC8:02F0 8CDB          MOV BX,DS
   9EC8:02F2 91            XCHG    CX,AX
   9EC8:02F3 E859FF        CALL    024F
   9EC8:02F6 B85103        MOV AX,0351
   9EC8:02F9 8706A800      XCHG    AX,[00A8]
   9EC8:02FD 26            ES:
   9EC8:02FE A33A04        MOV [043A],AX
   9EC8:0301 55            PUSH    BP
   9EC8:0302 872EAA00      XCHG    BP,[00AA]
   9EC8:0306 26            ES:
   9EC8:0307 892E3C04      MOV [043C],BP
   9EC8:030B 5D            POP BP
   9EC8:030C 92            XCHG    DX,AX
   9EC8:030D 0BC0          OR  AX,AX
   9EC8:030F 7417          JZ  0328
   9EC8:0311 E83BFF        CALL    024F
   9EC8:0314 B83003        MOV AX,0330
   9EC8:0317 87061A00      XCHG    AX,[001A]
   9EC8:031B 26            ES:
   9EC8:031C A34D03        MOV [034D],AX
   9EC8:031F 872E1C00      XCHG    BP,[001C]
   9EC8:0323 26            ES:
   9EC8:0324 892E4F03      MOV [034F],BP
   9EC8:0328 07            POP ES
   9EC8:0329 1F            POP DS
   9EC8:032A 61            DB  61
   9EC8:032B EA0000FFFF    JMP FFFF:0000
   9EC8:0330 50            PUSH    AX
   9EC8:0331 1E            PUSH    DS
   9EC8:0332 6A            DB  6A
   9EC8:0333 001F          ADD [BX],BL
   9EC8:0335 B88603        MOV AX,0386
   9EC8:0338 8706A800      XCHG    AX,[00A8]
   9EC8:033C 2E            CS:
   9EC8:033D A33A04        MOV [043A],AX
   9EC8:0340 8CC8          MOV AX,CS
   9EC8:0342 8706AA00      XCHG    AX,[00AA]
   9EC8:0346 2E            CS:
   9EC8:0347 A33C04        MOV [043C],AX
   9EC8:034A 1F            POP DS
   9EC8:034B 58            POP AX
   9EC8:034C EAB102540D    JMP 0D54:02B1
   9EC8:0351 60            DB  60
   9EC8:0352 1E            PUSH    DS
   9EC8:0353 06            PUSH    ES
   9EC8:0354 2E            CS:
   9EC8:0355 C606FF00EB    MOV BYTE PTR [00FF],EB
   9EC8:035A 2E            CS:
   9EC8:035B C60658053D    MOV BYTE PTR [0558],3D
   9EC8:0360 B80016        MOV AX,1600
   9EC8:0363 CD2F          INT 2F
   9EC8:0365 0AC0          OR  AL,AL
   9EC8:0367 7505          JNZ 036E
   9EC8:0369 E881FE        CALL    01ED
   9EC8:036C EB03          JMP 0371
   9EC8:036E E8B9FE        CALL    022A
   9EC8:0371 B80013        MOV AX,1300
   9EC8:0374 8BD3          MOV DX,BX
   9EC8:0376 06            PUSH    ES
   9EC8:0377 1F            POP DS
   9EC8:0378 CD2F          INT 2F
   9EC8:037A 2E            CS:
   9EC8:037B 8916F800      MOV [00F8],DX
   9EC8:037F 2E            CS:
   9EC8:0380 8C1EFA00      MOV [00FA],DS
   9EC8:0384 EB03          JMP 0389
   9EC8:0386 60            DB  60
   9EC8:0387 1E            PUSH    DS
   9EC8:0388 06            PUSH    ES
   9EC8:0389 B80312        MOV AX,1203
   9EC8:038C CD2F          INT 2F
   9EC8:038E 8CD8          MOV AX,DS
   9EC8:0390 8CD6          MOV SI,SS
   9EC8:0392 2BF0          SUB SI,AX
   9EC8:0394 7403          JZ  0399
   9EC8:0396 E99D00        JMP 0436
   9EC8:0399 0E            PUSH    CS
   9EC8:039A 1F            POP DS
   9EC8:039B A33101        MOV [0131],AX
   9EC8:039E C606C00DEB    MOV BYTE PTR [0DC0],EB
   9EC8:03A3 C6060401EB    MOV BYTE PTR [0104],EB
   9EC8:03A8 C4063A04      LES AX,[043A]
   9EC8:03AC 8EDE          MOV DS,SI
   9EC8:03AE A3A800        MOV [00A8],AX
   9EC8:03B1 8C06AA00      MOV [00AA],ES
   9EC8:03B5 8BEC          MOV BP,SP
   9EC8:03B7 8E5E16        MOV DS,[BP+16]
   9EC8:03BA 83FE80        CMP SI,-80
   9EC8:03BD 7777          JA  0436
   9EC8:03BF AC            LODSB
   9EC8:03C0 3C2E          CMP AL,2E
   9EC8:03C2 75F6          JNZ 03BA
   9EC8:03C4 AD            LODSW
   9EC8:03C5 3D8B9F        CMP AX,9F8B
   9EC8:03C8 75F0          JNZ 03BA
   9EC8:03CA AD            LODSW
   9EC8:03CB 2E            CS:
   9EC8:03CC A35111        MOV [1151],AX
   9EC8:03CF B93000        MOV CX,0030
   9EC8:03D2 4E            DEC SI
   9EC8:03D3 AD            LODSW
   9EC8:03D4 3D871E        CMP AX,1E87
   9EC8:03D7 E0F9          LOOPNZ  03D2
   9EC8:03D9 E3DF          JCXZ    03BA
   9EC8:03DB AD            LODSW
   9EC8:03DC 2E            CS:
   9EC8:03DD A35311        MOV [1153],AX
   9EC8:03E0 46            INC SI
   9EC8:03E1 813C36FF      CMP WORD PTR [SI],FF36
   9EC8:03E5 E0F9          LOOPNZ  03E0
   9EC8:03E7 E3D1          JCXZ    03BA
   9EC8:03E9 807C0216      CMP BYTE PTR [SI+02],16
   9EC8:03ED 75F1          JNZ 03E0
   9EC8:03EF 394403        CMP [SI+03],AX
   9EC8:03F2 75EC          JNZ 03E0
   9EC8:03F4 C6049A        MOV BYTE PTR [SI],9A
   9EC8:03F7 C744013D05    MOV WORD PTR [SI+01],053D
   9EC8:03FC 8C4C03        MOV [SI+03],CS
   9EC8:03FF 2E            CS:
   9EC8:0400 89365B11      MOV [115B],SI
   9EC8:0404 83FE80        CMP SI,-80
   9EC8:0407 772D          JA  0436
   9EC8:0409 4E            DEC SI
   9EC8:040A AD            LODSW
   9EC8:040B 3DFB80        CMP AX,80FB
   9EC8:040E 75F4          JNZ 0404
   9EC8:0410 813CFC11      CMP WORD PTR [SI],11FC
   9EC8:0414 75EE          JNZ 0404
   9EC8:0416 817C02750A    CMP WORD PTR [SI+02],0A75
   9EC8:041B 75E7          JNZ 0404
   9EC8:041D 817C05C074    CMP WORD PTR [SI+05],74C0
   9EC8:0422 75E0          JNZ 0404
   9EC8:0424 4E            DEC SI
   9EC8:0425 C6049A        MOV BYTE PTR [SI],9A
   9EC8:0428 C744013E04    MOV WORD PTR [SI+01],043E
   9EC8:042D 8C4C03        MOV [SI+03],CS
   9EC8:0430 4E            DEC SI
   9EC8:0431 2E            CS:
   9EC8:0432 89365D11      MOV [115D],SI
   9EC8:0436 07            POP ES
   9EC8:0437 1F            POP DS
   9EC8:0438 61            DB  61
   9EC8:0439 EAD2403200    JMP 0032:40D2
   9EC8:043E 2E            CS:
   9EC8:043F C606C00D3C    MOV BYTE PTR [0DC0],3C
   9EC8:0444 50            PUSH    AX
   9EC8:0445 55            PUSH    BP
   9EC8:0446 8BEC          MOV BP,SP
   9EC8:0448 80FC11        CMP AH,11
   9EC8:044B 7404          JZ  0451
   9EC8:044D 8346040A      ADD WORD PTR [BP+04],+0A
   9EC8:0451 8B460A        MOV AX,[BP+0A]
   9EC8:0454 8CCD          MOV BP,CS
   9EC8:0456 3BC5          CMP AX,BP
   9EC8:0458 5D            POP BP
   9EC8:0459 58            POP AX
   9EC8:045A 740C          JZ  0468
   9EC8:045C 3D1612        CMP AX,1216
   9EC8:045F 7507          JNZ 0468
   9EC8:0461 83C404        ADD SP,+04
   9EC8:0464 F9            STC
   9EC8:0465 CA0200        RETF    0002
   9EC8:0468 CB            RETF
   9EC8:0469 80FC4B        CMP AH,4B
   9EC8:046C 7401          JZ  046F
   9EC8:046E C3            RET
   9EC8:046F 60            DB  60
   9EC8:0470 1E            PUSH    DS
   9EC8:0471 06            PUSH    ES
   9EC8:0472 0AC0          OR  AL,AL
   9EC8:0474 7428          JZ  049E
   9EC8:0476 8BF2          MOV SI,DX
   9EC8:0478 AC            LODSB
   9EC8:0479 0AC0          OR  AL,AL
   9EC8:047B 75FB          JNZ 0478
   9EC8:047D 817CF74D33    CMP WORD PTR [SI-09],334D
   9EC8:0482 7517          JNZ 049B
   9EC8:0484 817CF45145    CMP WORD PTR [SI-0C],4551
   9EC8:0489 7510          JNZ 049B
   9EC8:048B E89CFD        CALL    022A
   9EC8:048E B80013        MOV AX,1300
   9EC8:0491 8BD3          MOV DX,BX
   9EC8:0493 CD2F          INT 2F
   9EC8:0495 2E            CS:
   9EC8:0496 C606FF00EB    MOV BYTE PTR [00FF],EB
   9EC8:049B E99B00        JMP 0539
   9EC8:049E 2E            CS:
   9EC8:049F C606FF00EB    MOV BYTE PTR [00FF],EB
   9EC8:04A4 B452          MOV AH,52
   9EC8:04A6 E85108        CALL    0CFA
   9EC8:04A9 26            ES:
   9EC8:04AA 8B47FE        MOV AX,[BX-02]
   9EC8:04AD E8C7FB        CALL    0077
   9EC8:04B0 8EDB          MOV DS,BX
   9EC8:04B2 8BC3          MOV AX,BX
   9EC8:04B4 034503        ADD AX,[DI+03]
   9EC8:04B7 80FCA0        CMP AH,A0
   9EC8:04BA 760D          JBE 04C9
   9EC8:04BC 33F6          XOR SI,SI
   9EC8:04BE E8CDFB        CALL    008E
   9EC8:04C1 B9B004        MOV CX,04B0
   9EC8:04C4 F3            REPZ
   9EC8:04C5 2E            CS:
   9EC8:04C6 A4            MOVSB
   9EC8:04C7 734B          JNB 0514
   9EC8:04C9 B80058        MOV AX,5800
   9EC8:04CC E82B08        CALL    0CFA
   9EC8:04CF 50            PUSH    AX
   9EC8:04D0 B80158        MOV AX,5801
   9EC8:04D3 BB8000        MOV BX,0080
   9EC8:04D6 50            PUSH    AX
   9EC8:04D7 E82008        CALL    0CFA
   9EC8:04DA B80258        MOV AX,5802
   9EC8:04DD E81A08        CALL    0CFA
   9EC8:04E0 32E4          XOR AH,AH
   9EC8:04E2 50            PUSH    AX
   9EC8:04E3 B80358        MOV AX,5803
   9EC8:04E6 B301          MOV BL,01
   9EC8:04E8 50            PUSH    AX
   9EC8:04E9 E80E08        CALL    0CFA
   9EC8:04EC B448          MOV AH,48
   9EC8:04EE BB3801        MOV BX,0138
   9EC8:04F1 E80608        CALL    0CFA
   9EC8:04F4 95            XCHG    BP,AX
   9EC8:04F5 58            POP AX
   9EC8:04F6 5B            POP BX
   9EC8:04F7 E80008        CALL    0CFA
   9EC8:04FA 58            POP AX
   9EC8:04FB 5B            POP BX
   9EC8:04FC E8FB07        CALL    0CFA
   9EC8:04FF 33FF          XOR DI,DI
   9EC8:0501 8EC5          MOV ES,BP
   9EC8:0503 4D            DEC BP
   9EC8:0504 8EDD          MOV DS,BP
   9EC8:0506 C745010800    MOV WORD PTR [DI+01],0008
   9EC8:050B 33F6          XOR SI,SI
   9EC8:050D 0E            PUSH    CS
   9EC8:050E 1F            POP DS
   9EC8:050F B97713        MOV CX,1377
   9EC8:0512 F3            REPZ
   9EC8:0513 A4            MOVSB
   9EC8:0514 0E            PUSH    CS
   9EC8:0515 1F            POP DS
   9EC8:0516 8B3E4502      MOV DI,[0245]
   9EC8:051A 8B365D11      MOV SI,[115D]
   9EC8:051E C51E5711      LDS BX,[1157]
   9EC8:0522 8C47FE        MOV [BX-02],ES
   9EC8:0525 8C4404        MOV [SI+04],ES
   9EC8:0528 8ED9          MOV DS,CX
   9EC8:052A 8C4502        MOV [DI+02],ES
   9EC8:052D 26            ES:
   9EC8:052E C60604013C    MOV BYTE PTR [0104],3C
   9EC8:0533 26            ES:
   9EC8:0534 C60658053D    MOV BYTE PTR [0558],3D
   9EC8:0539 07            POP ES
   9EC8:053A 1F            POP DS
   9EC8:053B 61            DB  61
   9EC8:053C C3            RET
   9EC8:053D 2E            CS:
   9EC8:053E 8F065711      POP [1157]
   9EC8:0542 2E            CS:
   9EC8:0543 8F065911      POP [1159]
   9EC8:0547 9C            PUSHF
   9EC8:0548 55            PUSH    BP
   9EC8:0549 8BEC          MOV BP,SP
   9EC8:054B 817E045344    CMP WORD PTR [BP+04],4453
   9EC8:0550 5D            POP BP
   9EC8:0551 7504          JNZ 0557
   9EC8:0553 9D            POPF
   9EC8:0554 44            INC SP
   9EC8:0555 44            INC SP
   9EC8:0556 C3            RET
   9EC8:0557 9D            POPF
   9EC8:0558 3D0EFF        CMP AX,FF0E
   9EC8:055B 80FC11        CMP AH,11
   9EC8:055E 7235          JB  0595
   9EC8:0560 80FC12        CMP AH,12
   9EC8:0563 7730          JA  0595
   9EC8:0565 E82308        CALL    0D8B
   9EC8:0568 0AC0          OR  AL,AL
   9EC8:056A 740F          JZ  057B
   9EC8:056C 50            PUSH    AX
   9EC8:056D B81812        MOV AX,1218
   9EC8:0570 E84D08        CALL    0DC0
   9EC8:0573 58            POP AX
   9EC8:0574 8904          MOV [SI],AX
   9EC8:0576 2E            CS:
   9EC8:0577 FF2E5711      JMP FAR [1157]
   9EC8:057B E86208        CALL    0DE0
   9EC8:057E 74EC          JZ  056C
   9EC8:0580 50            PUSH    AX
   9EC8:0581 B42F          MOV AH,2F
   9EC8:0583 E87407        CALL    0CFA
   9EC8:0586 26            ES:
   9EC8:0587 803FFF        CMP BYTE PTR [BX],FF
   9EC8:058A 7503          JNZ 058F
   9EC8:058C 83C307        ADD BX,+07
   9EC8:058F 43            INC BX
   9EC8:0590 BE0200        MOV SI,0002
   9EC8:0593 EB17          JMP 05AC
   9EC8:0595 80FC4E        CMP AH,4E
   9EC8:0598 7239          JB  05D3
   9EC8:059A 80FC4F        CMP AH,4F
   9EC8:059D 7734          JA  05D3
   9EC8:059F E8E907        CALL    0D8B
   9EC8:05A2 50            PUSH    AX
   9EC8:05A3 722B          JB  05D0
   9EC8:05A5 B42F          MOV AH,2F
   9EC8:05A7 E85007        CALL    0CFA
   9EC8:05AA 33F6          XOR SI,SI
   9EC8:05AC E82808        CALL    0DD7
   9EC8:05AF 741F          JZ  05D0
   9EC8:05B1 06            PUSH    ES
   9EC8:05B2 1F            POP DS
   9EC8:05B3 807F19C8      CMP BYTE PTR [BX+19],C8
   9EC8:05B7 7217          JB  05D0
   9EC8:05B9 806F19C8      SUB BYTE PTR [BX+19],C8
   9EC8:05BD C4401A        LES AX,[BX+SI+1A]
   9EC8:05C0 8CC2          MOV DX,ES
   9EC8:05C2 2DC70E        SUB AX,0EC7
   9EC8:05C5 83DA00        SBB DX,+00
   9EC8:05C8 7206          JB  05D0
   9EC8:05CA 89401A        MOV [BX+SI+1A],AX
   9EC8:05CD 89501C        MOV [BX+SI+1C],DX
   9EC8:05D0 58            POP AX
   9EC8:05D1 EB99          JMP 056C
   9EC8:05D3 3D0242        CMP AX,4202
   9EC8:05D6 7526          JNZ 05FE
   9EC8:05D8 E8FA06        CALL    0CD5
   9EC8:05DB 7621          JBE 05FE
   9EC8:05DD E8F707        CALL    0DD7
   9EC8:05E0 741C          JZ  05FE
   9EC8:05E2 816D11C70E    SUB WORD PTR [DI+11],0EC7
   9EC8:05E7 835D1300      SBB WORD PTR [DI+13],+00
   9EC8:05EB 57            PUSH    DI
   9EC8:05EC 1E            PUSH    DS
   9EC8:05ED E89B07        CALL    0D8B
   9EC8:05F0 1F            POP DS
   9EC8:05F1 5F            POP DI
   9EC8:05F2 814511C70E    ADD WORD PTR [DI+11],0EC7
   9EC8:05F7 83551300      ADC WORD PTR [DI+13],+00
   9EC8:05FB E96EFF        JMP 056C
   9EC8:05FE 80FC57        CMP AH,57
   9EC8:0601 7520          JNZ 0623
   9EC8:0603 E8CF06        CALL    0CD5
   9EC8:0606 761B          JBE 0623
   9EC8:0608 E8CC07        CALL    0DD7
   9EC8:060B 7416          JZ  0623
   9EC8:060D 57            PUSH    DI
   9EC8:060E 1E            PUSH    DS
   9EC8:060F 0AC0          OR  AL,AL
   9EC8:0611 7504          JNZ 0617
   9EC8:0613 806D10C8      SUB BYTE PTR [DI+10],C8
   9EC8:0617 E87107        CALL    0D8B
   9EC8:061A 1F            POP DS
   9EC8:061B 5F            POP DI
   9EC8:061C 804510C8      ADD BYTE PTR [DI+10],C8
   9EC8:0620 E949FF        JMP 056C
   9EC8:0623 80FC3F        CMP AH,3F
   9EC8:0626 7403          JZ  062B
   9EC8:0628 E94901        JMP 0774
   9EC8:062B E8A907        CALL    0DD7
   9EC8:062E 74F8          JZ  0628
   9EC8:0630 1E            PUSH    DS
   9EC8:0631 E8A106        CALL    0CD5
   9EC8:0634 1F            POP DS
   9EC8:0635 76F1          JBE 0628
   9EC8:0637 2E            CS:
   9EC8:0638 8C1E6B0C      MOV [0C6B],DS
   9EC8:063C 0E            PUSH    CS
   9EC8:063D 1F            POP DS
   9EC8:063E 890E650C      MOV [0C65],CX
   9EC8:0642 8916680C      MOV [0C68],DX
   9EC8:0646 83266F0700    AND WORD PTR [076F],+00
   9EC8:064B 06            PUSH    ES
   9EC8:064C 1F            POP DS
   9EC8:064D E85A06        CALL    0CAA
   9EC8:0650 2D4000        SUB AX,0040
   9EC8:0653 83DA00        SBB DX,+00
   9EC8:0656 7320          JNB 0678
   9EC8:0658 034511        ADD AX,[DI+11]
   9EC8:065B 135513        ADC DX,[DI+13]
   9EC8:065E 874515        XCHG    AX,[DI+15]
   9EC8:0661 875517        XCHG    DX,[DI+17]
   9EC8:0664 8BCA          MOV CX,DX
   9EC8:0666 92            XCHG    DX,AX
   9EC8:0667 E8F205        CALL    0C5C
   9EC8:066A 7303          JNB 066F
   9EC8:066C E9FD00        JMP 076C
   9EC8:066F 9C            PUSHF
   9EC8:0670 03D0          ADD DX,AX
   9EC8:0672 E83F06        CALL    0CB4
   9EC8:0675 9D            POPF
   9EC8:0676 74F4          JZ  066C
   9EC8:0678 06            PUSH    ES
   9EC8:0679 E82E06        CALL    0CAA
   9EC8:067C 50            PUSH    AX
   9EC8:067D 52            PUSH    DX
   9EC8:067E E83F06        CALL    0CC0
   9EC8:0681 E86A05        CALL    0BEE
   9EC8:0684 59            POP CX
   9EC8:0685 5A            POP DX
   9EC8:0686 9C            PUSHF
   9EC8:0687 E82A06        CALL    0CB4
   9EC8:068A 9D            POPF
   9EC8:068B C406030F      LES AX,[0F03]
   9EC8:068F 8CC1          MOV CX,ES
   9EC8:0691 1F            POP DS
   9EC8:0692 7303          JNB 0697
   9EC8:0694 E9BE00        JMP 0755
   9EC8:0697 874511        XCHG    AX,[DI+11]
   9EC8:069A 50            PUSH    AX
   9EC8:069B 874D13        XCHG    CX,[DI+13]
   9EC8:069E 51            PUSH    CX
   9EC8:069F E8BA05        CALL    0C5C
   9EC8:06A2 8F4513        POP [DI+13]
   9EC8:06A5 8F4511        POP [DI+11]
   9EC8:06A8 7703          JA  06AD
   9EC8:06AA E9BF00        JMP 076C
   9EC8:06AD E8FA05        CALL    0CAA
   9EC8:06B0 0E            PUSH    CS
   9EC8:06B1 1F            POP DS
   9EC8:06B2 2B06030F      SUB AX,[0F03]
   9EC8:06B6 1B16050F      SBB DX,[0F05]
   9EC8:06BA 753F          JNZ 06FB
   9EC8:06BC 3D4800        CMP AX,0048
   9EC8:06BF 733A          JNB 06FB
   9EC8:06C1 05070F        ADD AX,0F07
   9EC8:06C4 96            XCHG    SI,AX
   9EC8:06C5 33C0          XOR AX,AX
   9EC8:06C7 8B3E680C      MOV DI,[0C68]
   9EC8:06CB 8E066B0C      MOV ES,[0C6B]
   9EC8:06CF 8B0E650C      MOV CX,[0C65]
   9EC8:06D3 E312          JCXZ    06E7
   9EC8:06D5 81FE4F0F      CMP SI,0F4F
   9EC8:06D9 730C          JNB 06E7
   9EC8:06DB A4            MOVSB
   9EC8:06DC FF066F07      INC WORD PTR [076F]
   9EC8:06E0 FF06680C      INC WORD PTR [0C68]
   9EC8:06E4 40            INC AX
   9EC8:06E5 E2EE          LOOP    06D5
   9EC8:06E7 890E650C      MOV [0C65],CX
   9EC8:06EB E8E705        CALL    0CD5
   9EC8:06EE 014515        ADD [DI+15],AX
   9EC8:06F1 83551700      ADC WORD PTR [DI+17],+00
   9EC8:06F5 0BC9          OR  CX,CX
   9EC8:06F7 7502          JNZ 06FB
   9EC8:06F9 EB71          JMP 076C
   9EC8:06FB 0E            PUSH    CS
   9EC8:06FC 1F            POP DS
   9EC8:06FD A12B0F        MOV AX,[0F2B]
   9EC8:0700 33D2          XOR DX,DX
   9EC8:0702 050100        ADD AX,0001
   9EC8:0705 13D2          ADC DX,DX
   9EC8:0707 BE0800        MOV SI,0008
   9EC8:070A F7E6          MUL SI
   9EC8:070C 0306310F      ADD AX,[0F31]
   9EC8:0710 83D200        ADC DX,+00
   9EC8:0713 0306030F      ADD AX,[0F03]
   9EC8:0717 1316050F      ADC DX,[0F05]
   9EC8:071B E8B705        CALL    0CD5
   9EC8:071E 3B5517        CMP DX,[DI+17]
   9EC8:0721 7232          JB  0755
   9EC8:0723 7705          JA  072A
   9EC8:0725 3B4515        CMP AX,[DI+15]
   9EC8:0728 762B          JBE 0755
   9EC8:072A 2D0800        SUB AX,0008
   9EC8:072D 83DA00        SBB DX,+00
   9EC8:0730 874511        XCHG    AX,[DI+11]
   9EC8:0733 50            PUSH    AX
   9EC8:0734 875513        XCHG    DX,[DI+13]
   9EC8:0737 52            PUSH    DX
   9EC8:0738 836D1508      SUB WORD PTR [DI+15],+08
   9EC8:073C 835D1700      SBB WORD PTR [DI+17],+00
   9EC8:0740 E81905        CALL    0C5C
   9EC8:0743 9C            PUSHF
   9EC8:0744 83451508      ADD WORD PTR [DI+15],+08
   9EC8:0748 83551500      ADC WORD PTR [DI+15],+00
   9EC8:074C 9D            POPF
   9EC8:074D 8F4513        POP [DI+13]
   9EC8:0750 8F4511        POP [DI+11]
   9EC8:0753 7617          JBE 076C
   9EC8:0755 816D11C70E    SUB WORD PTR [DI+11],0EC7
   9EC8:075A 835D1300      SBB WORD PTR [DI+13],+00
   9EC8:075E E8FB04        CALL    0C5C
   9EC8:0761 9C            PUSHF
   9EC8:0762 814511C70E    ADD WORD PTR [DI+11],0EC7
   9EC8:0767 83551300      ADC WORD PTR [DI+13],+00
   9EC8:076B 9D            POPF
   9EC8:076C 7203          JB  0771
   9EC8:076E B8636A        MOV AX,6A63
   9EC8:0771 E9F8FD        JMP 056C
   9EC8:0774 60            DB  60
   9EC8:0775 1E            PUSH    DS
   9EC8:0776 06            PUSH    ES
   9EC8:0777 3D7F18        CMP AX,187F
   9EC8:077A 7514          JNZ 0790
   9EC8:077C 81FB5344      CMP BX,4453
   9EC8:0780 750E          JNZ 0790
   9EC8:0782 B81812        MOV AX,1218
   9EC8:0785 E83806        CALL    0DC0
   9EC8:0788 8144024E43    ADD WORD PTR [SI+02],434E
   9EC8:078D E9C201        JMP 0952
   9EC8:0790 80FC40        CMP AH,40
   9EC8:0793 7403          JZ  0798
   9EC8:0795 E9F100        JMP 0889
   9EC8:0798 E83A05        CALL    0CD5
   9EC8:079B 76F8          JBE 0795
   9EC8:079D E81604        CALL    0BB6
   9EC8:07A0 FF7505        PUSH    [DI+05]
   9EC8:07A3 C54515        LDS AX,[DI+15]
   9EC8:07A6 50            PUSH    AX
   9EC8:07A7 1E            PUSH    DS
   9EC8:07A8 E81505        CALL    0CC0
   9EC8:07AB 7303          JNB 07B0
   9EC8:07AD E9C800        JMP 0878
   9EC8:07B0 E83B04        CALL    0BEE
   9EC8:07B3 9C            PUSHF
   9EC8:07B4 8306030F08    ADD WORD PTR [0F03],+08
   9EC8:07B9 8316050F00    ADC WORD PTR [0F05],+00
   9EC8:07BE 9D            POPF
   9EC8:07BF 7303          JNB 07C4
   9EC8:07C1 E99900        JMP 085D
   9EC8:07C4 8B441C        MOV AX,[SI+1C]
   9EC8:07C7 33D2          XOR DX,DX
   9EC8:07C9 B90800        MOV CX,0008
   9EC8:07CC F7E1          MUL CX
   9EC8:07CE 034422        ADD AX,[SI+22]
   9EC8:07D1 83D200        ADC DX,+00
   9EC8:07D4 50            PUSH    AX
   9EC8:07D5 52            PUSH    DX
   9EC8:07D6 0306030F      ADD AX,[0F03]
   9EC8:07DA 1316050F      ADC DX,[0F05]
   9EC8:07DE 050002        ADD AX,0200
   9EC8:07E1 83D200        ADC DX,+00
   9EC8:07E4 8BCA          MOV CX,DX
   9EC8:07E6 92            XCHG    DX,AX
   9EC8:07E7 E8CA04        CALL    0CB4
   9EC8:07EA 5A            POP DX
   9EC8:07EB 58            POP AX
   9EC8:07EC 2D4000        SUB AX,0040
   9EC8:07EF 83DA00        SBB DX,+00
   9EC8:07F2 B90002        MOV CX,0200
   9EC8:07F5 F7F1          DIV CX
   9EC8:07F7 8BFA          MOV DI,DX
   9EC8:07F9 95            XCHG    BP,AX
   9EC8:07FA 83ED01        SUB BP,+01
   9EC8:07FD 722E          JB  082D
   9EC8:07FF B9FFFF        MOV CX,FFFF
   9EC8:0802 BAF8FB        MOV DX,FBF8
   9EC8:0805 E8AF04        CALL    0CB7
   9EC8:0808 B43F          MOV AH,3F
   9EC8:080A B90002        MOV CX,0200
   9EC8:080D BA4F0F        MOV DX,0F4F
   9EC8:0810 E88C04        CALL    0C9F
   9EC8:0813 7263          JB  0878
   9EC8:0815 B9FFFF        MOV CX,FFFF
   9EC8:0818 BA08FE        MOV DX,FE08
   9EC8:081B E89904        CALL    0CB7
   9EC8:081E B440          MOV AH,40
   9EC8:0820 B90002        MOV CX,0200
   9EC8:0823 BA4F0F        MOV DX,0F4F
   9EC8:0826 E87604        CALL    0C9F
   9EC8:0829 73CF          JNB 07FA
   9EC8:082B EB4B          JMP 0878
   9EC8:082D B9FFFF        MOV CX,FFFF
   9EC8:0830 8D950802      LEA DX,[DI+0208]
   9EC8:0834 F7DA          NEG DX
   9EC8:0836 E87E04        CALL    0CB7
   9EC8:0839 B43F          MOV AH,3F
   9EC8:083B 8BCF          MOV CX,DI
   9EC8:083D BA4F0F        MOV DX,0F4F
   9EC8:0840 E85C04        CALL    0C9F
   9EC8:0843 7233          JB  0878
   9EC8:0845 B9FFFF        MOV CX,FFFF
   9EC8:0848 8D5540        LEA DX,[DI+40]
   9EC8:084B F7DA          NEG DX
   9EC8:084D E86704        CALL    0CB7
   9EC8:0850 B440          MOV AH,40
   9EC8:0852 8D4D48        LEA CX,[DI+48]
   9EC8:0855 BA070F        MOV DX,0F07
   9EC8:0858 E84404        CALL    0C9F
   9EC8:085B 721B          JB  0878
   9EC8:085D E83004        CALL    0C90
   9EC8:0860 7216          JB  0878
   9EC8:0862 B9FFFF        MOV CX,FFFF
   9EC8:0865 BA39F1        MOV DX,F139
   9EC8:0868 E84F04        CALL    0CBA
   9EC8:086B B440          MOV AH,40
   9EC8:086D 41            INC CX
   9EC8:086E E88904        CALL    0CFA
   9EC8:0871 E86104        CALL    0CD5
   9EC8:0874 806D10C8      SUB BYTE PTR [DI+10],C8
   9EC8:0878 59            POP CX
   9EC8:0879 5A            POP DX
   9EC8:087A E83704        CALL    0CB4
   9EC8:087D E85504        CALL    0CD5
   9EC8:0880 8F4505        POP [DI+05]
   9EC8:0883 E85303        CALL    0BD9
   9EC8:0886 E9C900        JMP 0952
   9EC8:0889 80FC3E        CMP AH,3E
   9EC8:088C 750C          JNZ 089A
   9EC8:088E E82503        CALL    0BB6
   9EC8:0891 E8E100        CALL    0975
   9EC8:0894 E84203        CALL    0BD9
   9EC8:0897 E9B800        JMP 0952
   9EC8:089A 80FC43        CMP AH,43
   9EC8:089D 7419          JZ  08B8
   9EC8:089F 80FC56        CMP AH,56
   9EC8:08A2 7414          JZ  08B8
   9EC8:08A4 3D004B        CMP AX,4B00
   9EC8:08A7 7205          JB  08AE
   9EC8:08A9 3D054B        CMP AX,4B05
   9EC8:08AC 7603          JBE 08B1
   9EC8:08AE E9A100        JMP 0952
   9EC8:08B1 7505          JNZ 08B8
   9EC8:08B3 8BF2          MOV SI,DX
   9EC8:08B5 C55404        LDS DX,[SI+04]
   9EC8:08B8 50            PUSH    AX
   9EC8:08B9 E8FA02        CALL    0BB6
   9EC8:08BC B8003D        MOV AX,3D00
   9EC8:08BF E83804        CALL    0CFA
   9EC8:08C2 720F          JB  08D3
   9EC8:08C4 93            XCHG    BX,AX
   9EC8:08C5 53            PUSH    BX
   9EC8:08C6 52            PUSH    DX
   9EC8:08C7 1E            PUSH    DS
   9EC8:08C8 E8AA00        CALL    0975
   9EC8:08CB 1F            POP DS
   9EC8:08CC 5A            POP DX
   9EC8:08CD 5B            POP BX
   9EC8:08CE B43E          MOV AH,3E
   9EC8:08D0 E82704        CALL    0CFA
   9EC8:08D3 E80303        CALL    0BD9
   9EC8:08D6 58            POP AX
   9EC8:08D7 3D014B        CMP AX,4B01
   9EC8:08DA 751F          JNZ 08FB
   9EC8:08DC 33ED          XOR BP,BP
   9EC8:08DE B8003D        MOV AX,3D00
   9EC8:08E1 E81604        CALL    0CFA
   9EC8:08E4 7211          JB  08F7
   9EC8:08E6 93            XCHG    BX,AX
   9EC8:08E7 E8EB03        CALL    0CD5
   9EC8:08EA 7606          JBE 08F2
   9EC8:08EC E8D103        CALL    0CC0
   9EC8:08EF 7201          JB  08F2
   9EC8:08F1 45            INC BP
   9EC8:08F2 B43E          MOV AH,3E
   9EC8:08F4 E80304        CALL    0CFA
   9EC8:08F7 0BED          OR  BP,BP
   9EC8:08F9 7502          JNZ 08FD
   9EC8:08FB EB55          JMP 0952
   9EC8:08FD 07            POP ES
   9EC8:08FE 1F            POP DS
   9EC8:08FF 61            DB  61
   9EC8:0900 53            PUSH    BX
   9EC8:0901 06            PUSH    ES
   9EC8:0902 E88604        CALL    0D8B
   9EC8:0905 07            POP ES
   9EC8:0906 5F            POP DI
   9EC8:0907 50            PUSH    AX
   9EC8:0908 7304          JNB 090E
   9EC8:090A 58            POP AX
   9EC8:090B E95EFC        JMP 056C
   9EC8:090E B451          MOV AH,51
   9EC8:0910 CD21          INT 21
   9EC8:0912 8BEB          MOV BP,BX
   9EC8:0914 BEC70E        MOV SI,0EC7
   9EC8:0917 0E            PUSH    CS
   9EC8:0918 1F            POP DS
   9EC8:0919 AD            LODSW
   9EC8:091A E88F02        CALL    0BAC
   9EC8:091D 7409          JZ  0928
   9EC8:091F 48            DEC AX
   9EC8:0920 26            ES:
   9EC8:0921 C47D12        LES DI,[DI+12]
   9EC8:0924 AB            STOSW
   9EC8:0925 A4            MOVSB
   9EC8:0926 EBE2          JMP 090A
   9EC8:0928 83C70E        ADD DI,+0E
   9EC8:092B 1E            PUSH    DS
   9EC8:092C 26            ES:
   9EC8:092D C51D          LDS BX,[DI]
   9EC8:092F 8B0F          MOV CX,[BX]
   9EC8:0931 1F            POP DS
   9EC8:0932 8B440E        MOV AX,[SI+0E]
   9EC8:0935 48            DEC AX
   9EC8:0936 48            DEC AX
   9EC8:0937 AB            STOSW
   9EC8:0938 93            XCHG    BX,AX
   9EC8:0939 8D4610        LEA AX,[BP+10]
   9EC8:093C 50            PUSH    AX
   9EC8:093D 03440C        ADD AX,[SI+0C]
   9EC8:0940 AB            STOSW
   9EC8:0941 1E            PUSH    DS
   9EC8:0942 8ED8          MOV DS,AX
   9EC8:0944 890F          MOV [BX],CX
   9EC8:0946 1F            POP DS
   9EC8:0947 8B4412        MOV AX,[SI+12]
   9EC8:094A AB            STOSW
   9EC8:094B 58            POP AX
   9EC8:094C 034414        ADD AX,[SI+14]
   9EC8:094F AB            STOSW
   9EC8:0950 EBB8          JMP 090A
   9EC8:0952 07            POP ES
   9EC8:0953 1F            POP DS
   9EC8:0954 61            DB  61
   9EC8:0955 2E            CS:
   9EC8:0956 FF365711      PUSH    [1157]
   9EC8:095A 55            PUSH    BP
   9EC8:095B 2E            CS:
   9EC8:095C 8B2E5311      MOV BP,[1153]
   9EC8:0960 8B6E00        MOV BP,[BP+00]
   9EC8:0963 2E            CS:
   9EC8:0964 892E5711      MOV [1157],BP
   9EC8:0968 5D            POP BP
   9EC8:0969 2E            CS:
   9EC8:096A FF365911      PUSH    [1159]
   9EC8:096E 2E            CS:
   9EC8:096F FF365711      PUSH    [1157]
   9EC8:0973 CB            RETF
   9EC8:0974 C3            RET
   9EC8:0975 E85D03        CALL    0CD5
   9EC8:0978 72FA          JB  0974
   9EC8:097A 75F8          JNZ 0974
   9EC8:097C 833D01        CMP WORD PTR [DI],+01
   9EC8:097F 75F3          JNZ 0974
   9EC8:0981 F645053E      TEST    BYTE PTR [DI+05],3E
   9EC8:0985 7514          JNZ 099B
   9EC8:0987 BAF503        MOV DX,03F5
   9EC8:098A B004          MOV AL,04
   9EC8:098C EE            OUT DX,AL
   9EC8:098D B504          MOV CH,04
   9EC8:098F E2FE          LOOP    098F
   9EC8:0991 EE            OUT DX,AL
   9EC8:0992 B504          MOV CH,04
   9EC8:0994 E2FE          LOOP    0994
   9EC8:0996 EC            IN  AL,DX
   9EC8:0997 A840          TEST    AL,40
   9EC8:0999 75D9          JNZ 0974
   9EC8:099B B445          MOV AH,45
   9EC8:099D E85A03        CALL    0CFA
   9EC8:09A0 72D2          JB  0974
   9EC8:09A2 53            PUSH    BX
   9EC8:09A3 93            XCHG    BX,AX
   9EC8:09A4 B43E          MOV AH,3E
   9EC8:09A6 E85103        CALL    0CFA
   9EC8:09A9 5B            POP BX
   9EC8:09AA 72C8          JB  0974
   9EC8:09AC B80045        MOV AX,4500
   9EC8:09AF 864504        XCHG    AL,[DI+04]
   9EC8:09B2 A81C          TEST    AL,1C
   9EC8:09B4 75BE          JNZ 0974
   9EC8:09B6 50            PUSH    AX
   9EC8:09B7 99            CWD
   9EC8:09B8 E83F03        CALL    0CFA
   9EC8:09BB 93            XCHG    BX,AX
   9EC8:09BC C745020200    MOV WORD PTR [DI+02],0002
   9EC8:09C1 B84300        MOV AX,0043
   9EC8:09C4 324528        XOR AL,[DI+28]
   9EC8:09C7 BD4F4D        MOV BP,4D4F
   9EC8:09CA 336D29        XOR BP,[DI+29]
   9EC8:09CD 0BE8          OR  BP,AX
   9EC8:09CF E8BB02        CALL    0C8D
   9EC8:09D2 7223          JB  09F7
   9EC8:09D4 8BF2          MOV SI,DX
   9EC8:09D6 BF870E        MOV DI,0E87
   9EC8:09D9 0E            PUSH    CS
   9EC8:09DA 07            POP ES
   9EC8:09DB F3            REPZ
   9EC8:09DC A4            MOVSB
   9EC8:09DD E8CD02        CALL    0CAD
   9EC8:09E0 91            XCHG    CX,AX
   9EC8:09E1 8B05          MOV AX,[DI]
   9EC8:09E3 E8C601        CALL    0BAC
   9EC8:09E6 7420          JZ  0A08
   9EC8:09E8 0BD5          OR  DX,BP
   9EC8:09EA 750B          JNZ 09F7
   9EC8:09EC B0E9          MOV AL,E9
   9EC8:09EE AA            STOSB
   9EC8:09EF 91            XCHG    CX,AX
   9EC8:09F0 2D0300        SUB AX,0003
   9EC8:09F3 AB            STOSW
   9EC8:09F4 E98D01        JMP 0B84
   9EC8:09F7 E8DB02        CALL    0CD5
   9EC8:09FA 58            POP AX
   9EC8:09FB 884504        MOV [DI+04],AL
   9EC8:09FE 804D0640      OR  BYTE PTR [DI+06],40
   9EC8:0A02 B43E          MOV AH,3E
   9EC8:0A04 E8F302        CALL    0CFA
   9EC8:0A07 C3            RET
   9EC8:0A08 52            PUSH    DX
   9EC8:0A09 51            PUSH    CX
   9EC8:0A0A E82102        CALL    0C2E
   9EC8:0A0D 58            POP AX
   9EC8:0A0E 5A            POP DX
   9EC8:0A0F 7303          JNB 0A14
   9EC8:0A11 E9EB00        JMP 0AFF
   9EC8:0A14 F6441580      TEST    BYTE PTR [SI+15],80
   9EC8:0A18 75DD          JNZ 09F7
   9EC8:0A1A 8B4C3A        MOV CX,[SI+3A]
   9EC8:0A1D D1EA          SHR DX,1
   9EC8:0A1F D1D8          RCR AX,1
   9EC8:0A21 72D4          JB  09F7
   9EC8:0A23 E2F8          LOOP    0A1D
   9EC8:0A25 0BD2          OR  DX,DX
   9EC8:0A27 75CE          JNZ 09F7
   9EC8:0A29 A3750E        MOV [0E75],AX
   9EC8:0A2C B108          MOV CL,08
   9EC8:0A2E 294D3C        SUB [DI+3C],CX
   9EC8:0A31 19553E        SBB [DI+3E],DX
   9EC8:0A34 AC            LODSB
   9EC8:0A35 0AC0          OR  AL,AL
   9EC8:0A37 E1FB          LOOPZ   0A34
   9EC8:0A39 75BC          JNZ 09F7
   9EC8:0A3B 8B4422        MOV AX,[SI+22]
   9EC8:0A3E B105          MOV CL,05
   9EC8:0A40 56            PUSH    SI
   9EC8:0A41 BD0400        MOV BP,0004
   9EC8:0A44 3E            DS:
   9EC8:0A45 3B02          CMP AX,[BP+SI]
   9EC8:0A47 7304          JNB 0A4D
   9EC8:0A49 3E            DS:
   9EC8:0A4A 830208        ADD WORD PTR [BP+SI],+08
   9EC8:0A4D BD2200        MOV BP,0022
   9EC8:0A50 46            INC SI
   9EC8:0A51 46            INC SI
   9EC8:0A52 E2F0          LOOP    0A44
   9EC8:0A54 5E            POP SI
   9EC8:0A55 BD6302        MOV BP,0263
   9EC8:0A58 8B441C        MOV AX,[SI+1C]
   9EC8:0A5B 50            PUSH    AX
   9EC8:0A5C 40            INC AX
   9EC8:0A5D 89441C        MOV [SI+1C],AX
   9EC8:0A60 876C14        XCHG    BP,[SI+14]
   9EC8:0A63 874416        XCHG    AX,[SI+16]
   9EC8:0A66 892E850E      MOV [0E85],BP
   9EC8:0A6A A3830E        MOV [0E83],AX
   9EC8:0A6D 58            POP AX
   9EC8:0A6E BD0800        MOV BP,0008
   9EC8:0A71 F7E5          MUL BP
   9EC8:0A73 034422        ADD AX,[SI+22]
   9EC8:0A76 13D1          ADC DX,CX
   9EC8:0A78 2D4000        SUB AX,0040
   9EC8:0A7B 1BD1          SBB DX,CX
   9EC8:0A7D BD0002        MOV BP,0200
   9EC8:0A80 F7F5          DIV BP
   9EC8:0A82 95            XCHG    BP,AX
   9EC8:0A83 B43F          MOV AH,3F
   9EC8:0A85 8BCA          MOV CX,DX
   9EC8:0A87 BA4F0F        MOV DX,0F4F
   9EC8:0A8A E81202        CALL    0C9F
   9EC8:0A8D 7246          JB  0AD5
   9EC8:0A8F 51            PUSH    CX
   9EC8:0A90 C4553C        LES DX,[DI+3C]
   9EC8:0A93 8CC1          MOV CX,ES
   9EC8:0A95 E81C02        CALL    0CB4
   9EC8:0A98 59            POP CX
   9EC8:0A99 B440          MOV AH,40
   9EC8:0A9B 83C140        ADD CX,+40
   9EC8:0A9E BA0F0F        MOV DX,0F0F
   9EC8:0AA1 E8FB01        CALL    0C9F
   9EC8:0AA4 722F          JB  0AD5
   9EC8:0AA6 83ED01        SUB BP,+01
   9EC8:0AA9 722D          JB  0AD8
   9EC8:0AAB 33C9          XOR CX,CX
   9EC8:0AAD BA0800        MOV DX,0008
   9EC8:0AB0 E80402        CALL    0CB7
   9EC8:0AB3 B43F          MOV AH,3F
   9EC8:0AB5 B502          MOV CH,02
   9EC8:0AB7 BA4F0F        MOV DX,0F4F
   9EC8:0ABA E8E201        CALL    0C9F
   9EC8:0ABD 7216          JB  0AD5
   9EC8:0ABF B9FFFF        MOV CX,FFFF
   9EC8:0AC2 BAF8FD        MOV DX,FDF8
   9EC8:0AC5 E8EF01        CALL    0CB7
   9EC8:0AC8 B440          MOV AH,40
   9EC8:0ACA B90002        MOV CX,0200
   9EC8:0ACD BA4F0F        MOV DX,0F4F
   9EC8:0AD0 E8CC01        CALL    0C9F
   9EC8:0AD3 73D1          JNB 0AA6
   9EC8:0AD5 E91FFF        JMP 09F7
   9EC8:0AD8 B440          MOV AH,40
   9EC8:0ADA B90800        MOV CX,0008
   9EC8:0ADD BA750E        MOV DX,0E75
   9EC8:0AE0 E8BC01        CALL    0C9F
   9EC8:0AE3 72F0          JB  0AD5
   9EC8:0AE5 A32C03        MOV [032C],AX
   9EC8:0AE8 892E2E03      MOV [032E],BP
   9EC8:0AEC 40            INC AX
   9EC8:0AED A37D0E        MOV [0E7D],AX
   9EC8:0AF0 C7067F0E0304  MOV WORD PTR [0E7F],0403
   9EC8:0AF6 C706810E2C03  MOV WORD PTR [0E81],032C
   9EC8:0AFC E98500        JMP 0B84
   9EC8:0AFF E89F00        CALL    0BA1
   9EC8:0B02 2B4504        SUB AX,[DI+04]
   9EC8:0B05 75CE          JNZ 0AD5
   9EC8:0B07 2B5502        SUB DX,[DI+02]
   9EC8:0B0A 75C9          JNZ 0AD5
   9EC8:0B0C 837D0CFF      CMP WORD PTR [DI+0C],-01
   9EC8:0B10 75C3          JNZ 0AD5
   9EC8:0B12 3B451A        CMP AX,[DI+1A]
   9EC8:0B15 75BE          JNZ 0AD5
   9EC8:0B17 E89301        CALL    0CAD
   9EC8:0B1A BE1000        MOV SI,0010
   9EC8:0B1D 3BD6          CMP DX,SI
   9EC8:0B1F 73B4          JNB 0AD5
   9EC8:0B21 F7F6          DIV SI
   9EC8:0B23 2B4508        SUB AX,[DI+08]
   9EC8:0B26 50            PUSH    AX
   9EC8:0B27 52            PUSH    DX
   9EC8:0B28 875514        XCHG    DX,[DI+14]
   9EC8:0B2B 874516        XCHG    AX,[DI+16]
   9EC8:0B2E 52            PUSH    DX
   9EC8:0B2F 034508        ADD AX,[DI+08]
   9EC8:0B32 F7EE          IMUL    SI
   9EC8:0B34 5E            POP SI
   9EC8:0B35 2D0200        SUB AX,0002
   9EC8:0B38 1BD1          SBB DX,CX
   9EC8:0B3A 03C6          ADD AX,SI
   9EC8:0B3C 13CA          ADC CX,DX
   9EC8:0B3E 92            XCHG    DX,AX
   9EC8:0B3F E87201        CALL    0CB4
   9EC8:0B42 B43F          MOV AH,3F
   9EC8:0B44 B90200        MOV CX,0002
   9EC8:0B47 BA4F11        MOV DX,114F
   9EC8:0B4A E85201        CALL    0C9F
   9EC8:0B4D 5A            POP DX
   9EC8:0B4E 58            POP AX
   9EC8:0B4F 724D          JB  0B9E
   9EC8:0B51 813E4F115242  CMP WORD PTR [114F],4252
   9EC8:0B57 7445          JZ  0B9E
   9EC8:0B59 81C2C710      ADD DX,10C7
   9EC8:0B5D 48            DEC AX
   9EC8:0B5E 7409          JZ  0B69
   9EC8:0B60 83C210        ADD DX,+10
   9EC8:0B63 83FA80        CMP DX,-80
   9EC8:0B66 72F5          JB  0B5D
   9EC8:0B68 48            DEC AX
   9EC8:0B69 40            INC AX
   9EC8:0B6A 80E2FE        AND DL,FE
   9EC8:0B6D 895510        MOV [DI+10],DX
   9EC8:0B70 89450E        MOV [DI+0E],AX
   9EC8:0B73 E83701        CALL    0CAD
   9EC8:0B76 05C70E        ADD AX,0EC7
   9EC8:0B79 13D1          ADC DX,CX
   9EC8:0B7B E82300        CALL    0BA1
   9EC8:0B7E 894504        MOV [DI+04],AX
   9EC8:0B81 895502        MOV [DI+02],DX
   9EC8:0B84 E80901        CALL    0C90
   9EC8:0B87 7215          JB  0B9E
   9EC8:0B89 E82101        CALL    0CAD
   9EC8:0B8C B440          MOV AH,40
   9EC8:0B8E B9C70E        MOV CX,0EC7
   9EC8:0B91 99            CWD
   9EC8:0B92 E80A01        CALL    0C9F
   9EC8:0B95 7207          JB  0B9E
   9EC8:0B97 E83B01        CALL    0CD5
   9EC8:0B9A 804510C8      ADD BYTE PTR [DI+10],C8
   9EC8:0B9E E956FE        JMP 09F7
   9EC8:0BA1 B90002        MOV CX,0200
   9EC8:0BA4 F7F1          DIV CX
   9EC8:0BA6 0BD2          OR  DX,DX
   9EC8:0BA8 7401          JZ  0BAB
   9EC8:0BAA 40            INC AX
   9EC8:0BAB C3            RET
   9EC8:0BAC 40            INC AX
   9EC8:0BAD 3D4E5A        CMP AX,5A4E
   9EC8:0BB0 7403          JZ  0BB5
   9EC8:0BB2 3D5B4D        CMP AX,4D5B
   9EC8:0BB5 C3            RET
   9EC8:0BB6 50            PUSH    AX
   9EC8:0BB7 53            PUSH    BX
   9EC8:0BB8 52            PUSH    DX
   9EC8:0BB9 1E            PUSH    DS
   9EC8:0BBA 06            PUSH    ES
   9EC8:0BBB 0E            PUSH    CS
   9EC8:0BBC 1F            POP DS
   9EC8:0BBD B82435        MOV AX,3524
   9EC8:0BC0 E83701        CALL    0CFA
   9EC8:0BC3 891E7311      MOV [1173],BX
   9EC8:0BC7 8C067511      MOV [1175],ES
   9EC8:0BCB B425          MOV AH,25
   9EC8:0BCD BAEB0B        MOV DX,0BEB
   9EC8:0BD0 E82701        CALL    0CFA
   9EC8:0BD3 07            POP ES
   9EC8:0BD4 1F            POP DS
   9EC8:0BD5 5A            POP DX
   9EC8:0BD6 5B            POP BX
   9EC8:0BD7 58            POP AX
   9EC8:0BD8 C3            RET
   9EC8:0BD9 50            PUSH    AX
   9EC8:0BDA 52            PUSH    DX
   9EC8:0BDB 1E            PUSH    DS
   9EC8:0BDC B82425        MOV AX,2524
   9EC8:0BDF 2E            CS:
   9EC8:0BE0 C5167311      LDS DX,[1173]
   9EC8:0BE4 E81301        CALL    0CFA
   9EC8:0BE7 1F            POP DS
   9EC8:0BE8 5A            POP DX
   9EC8:0BE9 58            POP AX
   9EC8:0BEA C3            RET
   9EC8:0BEB B003          MOV AL,03
   9EC8:0BED CF            IRET
   9EC8:0BEE 832E030F08    SUB WORD PTR [0F03],+08
   9EC8:0BF3 831E050F00    SBB WORD PTR [0F05],+00
   9EC8:0BF8 E83300        CALL    0C2E
   9EC8:0BFB 7230          JB  0C2D
   9EC8:0BFD B108          MOV CL,08
   9EC8:0BFF 882C          MOV [SI],CH
   9EC8:0C01 46            INC SI
   9EC8:0C02 E2FB          LOOP    0BFF
   9EC8:0C04 FF4C1C        DEC WORD PTR [SI+1C]
   9EC8:0C07 A1C50E        MOV AX,[0EC5]
   9EC8:0C0A 894414        MOV [SI+14],AX
   9EC8:0C0D A1C30E        MOV AX,[0EC3]
   9EC8:0C10 894416        MOV [SI+16],AX
   9EC8:0C13 8B4422        MOV AX,[SI+22]
   9EC8:0C16 B105          MOV CL,05
   9EC8:0C18 56            PUSH    SI
   9EC8:0C19 BD0400        MOV BP,0004
   9EC8:0C1C 3E            DS:
   9EC8:0C1D 3B02          CMP AX,[BP+SI]
   9EC8:0C1F 7304          JNB 0C25
   9EC8:0C21 3E            DS:
   9EC8:0C22 832A08        SUB WORD PTR [BP+SI],+08
   9EC8:0C25 BD2200        MOV BP,0022
   9EC8:0C28 46            INC SI
   9EC8:0C29 46            INC SI
   9EC8:0C2A E2F0          LOOP    0C1C
   9EC8:0C2C 5E            POP SI
   9EC8:0C2D C3            RET
   9EC8:0C2E 833EDF0E40    CMP WORD PTR [0EDF],+40
   9EC8:0C33 7225          JB  0C5A
   9EC8:0C35 C416030F      LES DX,[0F03]
   9EC8:0C39 8CC1          MOV CX,ES
   9EC8:0C3B 83EA08        SUB DX,+08
   9EC8:0C3E 83D900        SBB CX,+00
   9EC8:0C41 E87000        CALL    0CB4
   9EC8:0C44 B43F          MOV AH,3F
   9EC8:0C46 B94800        MOV CX,0048
   9EC8:0C49 BA070F        MOV DX,0F07
   9EC8:0C4C 8BF2          MOV SI,DX
   9EC8:0C4E E84E00        CALL    0C9F
   9EC8:0C51 7207          JB  0C5A
   9EC8:0C53 817C084E45    CMP WORD PTR [SI+08],454E
   9EC8:0C58 7401          JZ  0C5B
   9EC8:0C5A F9            STC
   9EC8:0C5B C3            RET
   9EC8:0C5C 53            PUSH    BX
   9EC8:0C5D 51            PUSH    CX
   9EC8:0C5E 52            PUSH    DX
   9EC8:0C5F 56            PUSH    SI
   9EC8:0C60 57            PUSH    DI
   9EC8:0C61 55            PUSH    BP
   9EC8:0C62 1E            PUSH    DS
   9EC8:0C63 06            PUSH    ES
   9EC8:0C64 B99D93        MOV CX,939D
   9EC8:0C67 BA636A        MOV DX,6A63
   9EC8:0C6A B80020        MOV AX,2000
   9EC8:0C6D 8ED8          MOV DS,AX
   9EC8:0C6F B43F          MOV AH,3F
   9EC8:0C71 E81701        CALL    0D8B
   9EC8:0C74 720E          JB  0C84
   9EC8:0C76 0E            PUSH    CS
   9EC8:0C77 1F            POP DS
   9EC8:0C78 01066F07      ADD [076F],AX
   9EC8:0C7C 0106680C      ADD [0C68],AX
   9EC8:0C80 2906650C      SUB [0C65],AX
   9EC8:0C84 07            POP ES
   9EC8:0C85 1F            POP DS
   9EC8:0C86 5D            POP BP
   9EC8:0C87 5F            POP DI
   9EC8:0C88 5E            POP SI
   9EC8:0C89 5A            POP DX
   9EC8:0C8A 59            POP CX
   9EC8:0C8B 5B            POP BX
   9EC8:0C8C C3            RET
   9EC8:0C8D B43F          MOV AH,3F
   9EC8:0C8F 3DB440        CMP AX,40B4
   9EC8:0C92 50            PUSH    AX
   9EC8:0C93 E81100        CALL    0CA7
   9EC8:0C96 58            POP AX
   9EC8:0C97 B94000        MOV CX,0040
   9EC8:0C9A BAC70E        MOV DX,0EC7
   9EC8:0C9D 0E            PUSH    CS
   9EC8:0C9E 1F            POP DS
   9EC8:0C9F E85800        CALL    0CFA
   9EC8:0CA2 7202          JB  0CA6
   9EC8:0CA4 2BC1          SUB AX,CX
   9EC8:0CA6 C3            RET
   9EC8:0CA7 B000          MOV AL,00
   9EC8:0CA9 3DB001        CMP AX,01B0
   9EC8:0CAC 3DB002        CMP AX,02B0
   9EC8:0CAF 33C9          XOR CX,CX
   9EC8:0CB1 33D2          XOR DX,DX
   9EC8:0CB3 3DB000        CMP AX,00B0
   9EC8:0CB6 3DB001        CMP AX,01B0
   9EC8:0CB9 3DB002        CMP AX,02B0
   9EC8:0CBC B442          MOV AH,42
   9EC8:0CBE EB3A          JMP 0CFA
   9EC8:0CC0 B9FFFF        MOV CX,FFFF
   9EC8:0CC3 BABCFF        MOV DX,FFBC
   9EC8:0CC6 E8F1FF        CALL    0CBA
   9EC8:0CC9 B43F          MOV AH,3F
   9EC8:0CCB B94400        MOV CX,0044
   9EC8:0CCE BAC30E        MOV DX,0EC3
   9EC8:0CD1 0E            PUSH    CS
   9EC8:0CD2 1F            POP DS
   9EC8:0CD3 EBCA          JMP 0C9F
   9EC8:0CD5 50            PUSH    AX
   9EC8:0CD6 53            PUSH    BX
   9EC8:0CD7 B82012        MOV AX,1220
   9EC8:0CDA E8E300        CALL    0DC0
   9EC8:0CDD 33DB          XOR BX,BX
   9EC8:0CDF 26            ES:
   9EC8:0CE0 8A1D          MOV BL,[DI]
   9EC8:0CE2 B81612        MOV AX,1216
   9EC8:0CE5 E8D800        CALL    0DC0
   9EC8:0CE8 720D          JB  0CF7
   9EC8:0CEA 06            PUSH    ES
   9EC8:0CEB 1F            POP DS
   9EC8:0CEC F6450580      TEST    BYTE PTR [DI+05],80
   9EC8:0CF0 F5            CMC
   9EC8:0CF1 7504          JNZ 0CF7
   9EC8:0CF3 F64510C0      TEST    BYTE PTR [DI+10],C0
   9EC8:0CF7 5B            POP BX
   9EC8:0CF8 58            POP AX
   9EC8:0CF9 C3            RET
   9EC8:0CFA E84D00        CALL    0D4A
   9EC8:0CFD E88B00        CALL    0D8B
   9EC8:0D00 E85E00        CALL    0D61
   9EC8:0D03 2E            CS:
   9EC8:0D04 FF366911      PUSH    [1169]
   9EC8:0D08 2E            CS:
   9EC8:0D09 FF366D11      PUSH    [116D]
   9EC8:0D0D 2E            CS:
   9EC8:0D0E FF366F11      PUSH    [116F]
   9EC8:0D12 2E            CS:
   9EC8:0D13 8C1E6D11      MOV [116D],DS
   9EC8:0D17 0E            PUSH    CS
   9EC8:0D18 1F            POP DS
   9EC8:0D19 893E6911      MOV [1169],DI
   9EC8:0D1D 8C066F11      MOV [116F],ES
   9EC8:0D21 BF5F11        MOV DI,115F
   9EC8:0D24 0E            PUSH    CS
   9EC8:0D25 07            POP ES
   9EC8:0D26 FF35          PUSH    [DI]
   9EC8:0D28 9C            PUSHF
   9EC8:0D29 AB            STOSW
   9EC8:0D2A 8B05          MOV AX,[DI]
   9EC8:0D2C 93            XCHG    BX,AX
   9EC8:0D2D AB            STOSW
   9EC8:0D2E 8B05          MOV AX,[DI]
   9EC8:0D30 91            XCHG    CX,AX
   9EC8:0D31 AB            STOSW
   9EC8:0D32 8B05          MOV AX,[DI]
   9EC8:0D34 92            XCHG    DX,AX
   9EC8:0D35 AB            STOSW
   9EC8:0D36 8B05          MOV AX,[DI]
   9EC8:0D38 96            XCHG    SI,AX
   9EC8:0D39 AB            STOSW
   9EC8:0D3A AF            SCASW
   9EC8:0D3B 8B05          MOV AX,[DI]
   9EC8:0D3D 95            XCHG    BP,AX
   9EC8:0D3E AB            STOSW
   9EC8:0D3F 58            POP AX
   9EC8:0D40 874504        XCHG    AX,[DI+04]
   9EC8:0D43 50            PUSH    AX
   9EC8:0D44 9D            POPF
   9EC8:0D45 58            POP AX
   9EC8:0D46 07            POP ES
   9EC8:0D47 1F            POP DS
   9EC8:0D48 5F            POP DI
   9EC8:0D49 C3            RET
   9EC8:0D4A 9C            PUSHF
   9EC8:0D4B 50            PUSH    AX
   9EC8:0D4C 53            PUSH    BX
   9EC8:0D4D 51            PUSH    CX
   9EC8:0D4E 52            PUSH    DX
   9EC8:0D4F 56            PUSH    SI
   9EC8:0D50 57            PUSH    DI
   9EC8:0D51 55            PUSH    BP
   9EC8:0D52 1E            PUSH    DS
   9EC8:0D53 06            PUSH    ES
   9EC8:0D54 E8ACFF        CALL    0D03
   9EC8:0D57 07            POP ES
   9EC8:0D58 1F            POP DS
   9EC8:0D59 5D            POP BP
   9EC8:0D5A 5F            POP DI
   9EC8:0D5B 5E            POP SI
   9EC8:0D5C 5A            POP DX
   9EC8:0D5D 59            POP CX
   9EC8:0D5E 5B            POP BX
   9EC8:0D5F 58            POP AX
   9EC8:0D60 9D            POPF
   9EC8:0D61 50            PUSH    AX
   9EC8:0D62 53            PUSH    BX
   9EC8:0D63 51            PUSH    CX
   9EC8:0D64 56            PUSH    SI
   9EC8:0D65 1E            PUSH    DS
   9EC8:0D66 B81812        MOV AX,1218
   9EC8:0D69 E85400        CALL    0DC0
   9EC8:0D6C BF5F11        MOV DI,115F
   9EC8:0D6F B90900        MOV CX,0009
   9EC8:0D72 AD            LODSW
   9EC8:0D73 2E            CS:
   9EC8:0D74 8705          XCHG    AX,[DI]
   9EC8:0D76 AF            SCASW
   9EC8:0D77 8944FE        MOV [SI-02],AX
   9EC8:0D7A E2F6          LOOP    0D72
   9EC8:0D7C 8B4404        MOV AX,[SI+04]
   9EC8:0D7F 2E            CS:
   9EC8:0D80 8705          XCHG    AX,[DI]
   9EC8:0D82 894404        MOV [SI+04],AX
   9EC8:0D85 1F            POP DS
   9EC8:0D86 5E            POP SI
   9EC8:0D87 59            POP CX
   9EC8:0D88 5B            POP BX
   9EC8:0D89 58            POP AX
   9EC8:0D8A C3            RET
   9EC8:0D8B 50            PUSH    AX
   9EC8:0D8C 53            PUSH    BX
   9EC8:0D8D 1E            PUSH    DS
   9EC8:0D8E 2E            CS:
   9EC8:0D8F C51E5711      LDS BX,[1157]
   9EC8:0D93 8AC4          MOV AL,AH
   9EC8:0D95 98            CBW
   9EC8:0D96 D1E0          SHL AX,1
   9EC8:0D98 2E            CS:
   9EC8:0D99 03065111      ADD AX,[1151]
   9EC8:0D9D 93            XCHG    BX,AX
   9EC8:0D9E 8B07          MOV AX,[BX]
   9EC8:0DA0 2E            CS:
   9EC8:0DA1 A35511        MOV [1155],AX
   9EC8:0DA4 2E            CS:
   9EC8:0DA5 832E571105    SUB WORD PTR [1157],+05
   9EC8:0DAA 1F            POP DS
   9EC8:0DAB 5B            POP BX
   9EC8:0DAC 58            POP AX
   9EC8:0DAD 68            DB  68
   9EC8:0DAE 53            PUSH    BX
   9EC8:0DAF 44            INC SP
   9EC8:0DB0 2E            CS:
   9EC8:0DB1 FF365711      PUSH    [1157]
   9EC8:0DB5 2E            CS:
   9EC8:0DB6 FF365911      PUSH    [1159]
   9EC8:0DBA 2E            CS:
   9EC8:0DBB FF365511      PUSH    [1155]
   9EC8:0DBF CB            RETF
   9EC8:0DC0 3C12          CMP AL,12
   9EC8:0DC2 9C            PUSHF
   9EC8:0DC3 FA            CLI
   9EC8:0DC4 0E            PUSH    CS
   9EC8:0DC5 E80100        CALL    0DC9
   9EC8:0DC8 C3            RET
   9EC8:0DC9 2E            CS:
   9EC8:0DCA FF365911      PUSH    [1159]
   9EC8:0DCE 2E            CS:
   9EC8:0DCF FF365D11      PUSH    [115D]
   9EC8:0DD3 CB            RETF
   9EC8:0DD4 CD2F          INT 2F
   9EC8:0DD6 C3            RET
   9EC8:0DD7 56            PUSH    SI
   9EC8:0DD8 BE1C0E        MOV SI,0E1C
   9EC8:0DDB E80B00        CALL    0DE9
   9EC8:0DDE 5E            POP SI
   9EC8:0DDF C3            RET
   9EC8:0DE0 56            PUSH    SI
   9EC8:0DE1 BE450E        MOV SI,0E45
   9EC8:0DE4 E80200        CALL    0DE9
   9EC8:0DE7 5E            POP SI
   9EC8:0DE8 C3            RET
   9EC8:0DE9 60            DB  60
   9EC8:0DEA 1E            PUSH    DS
   9EC8:0DEB 06            PUSH    ES
   9EC8:0DEC 0E            PUSH    CS
   9EC8:0DED 1F            POP DS
   9EC8:0DEE B451          MOV AH,51
   9EC8:0DF0 CD21          INT 21
   9EC8:0DF2 4B            DEC BX
   9EC8:0DF3 8EC3          MOV ES,BX
   9EC8:0DF5 33DB          XOR BX,BX
   9EC8:0DF7 26            ES:
   9EC8:0DF8 817F084C4C    CMP WORD PTR [BX+08],4C4C
   9EC8:0DFD 7506          JNZ 0E05
   9EC8:0DFF 26            ES:
   9EC8:0E00 385F0B        CMP [BX+0B],BL
   9EC8:0E03 7413          JZ  0E18
   9EC8:0E05 AC            LODSB
   9EC8:0E06 3C01          CMP AL,01
   9EC8:0E08 720E          JB  0E18
   9EC8:0E0A 98            CBW
   9EC8:0E0B 8BC8          MOV CX,AX
   9EC8:0E0D 03C6          ADD AX,SI
   9EC8:0E0F 50            PUSH    AX
   9EC8:0E10 BF0800        MOV DI,0008
   9EC8:0E13 F3            REPZ
   9EC8:0E14 A6            CMPSB
   9EC8:0E15 5E            POP SI
   9EC8:0E16 75ED          JNZ 0E05
   9EC8:0E18 07            POP ES
   9EC8:0E19 1F            POP DS
   9EC8:0E1A 61            DB  61
   9EC8:0E1B C3            RET
   9EC8:0E1C 05504B        ADD AX,4B50
   9EC8:0E1F 5A            POP DX
   9EC8:0E20 49            DEC CX
   9EC8:0E21 50            PUSH    AX
   9EC8:0E22 034152        ADD AX,[BX+DI+52]
   9EC8:0E25 4A            DEC DX
   9EC8:0E26 035241        ADD DX,[BP+SI+41]
   9EC8:0E29 52            PUSH    DX
   9EC8:0E2A 034C48        ADD CX,[SI+48]
   9EC8:0E2D 41            INC CX
   9EC8:0E2E 055445        ADD AX,4554
   9EC8:0E31 4C            DEC SP
   9EC8:0E32 49            DEC CX
   9EC8:0E33 58            POP AX
   9EC8:0E34 06            PUSH    ES
   9EC8:0E35 42            INC DX
   9EC8:0E36 41            INC CX
   9EC8:0E37 43            INC BX
   9EC8:0E38 4B            DEC BX
   9EC8:0E39 55            PUSH    BP
   9EC8:0E3A 50            PUSH    AX
   9EC8:0E3B 084D53        OR  [DI+53],CL
   9EC8:0E3E 42            INC DX
   9EC8:0E3F 41            INC CX
   9EC8:0E40 43            INC BX
   9EC8:0E41 4B            DEC BX
   9EC8:0E42 55            PUSH    BP
   9EC8:0E43 50            PUSH    AX
   9EC8:0E44 00064348      ADD [4843],AL
   9EC8:0E48 4B            DEC BX
   9EC8:0E49 44            INC SP
   9EC8:0E4A 53            PUSH    BX
   9EC8:0E4B 4B            DEC BX
   9EC8:0E4C 005000        ADD [BX+SI+00],DL
   9EC8:0E4F 0102          ADD [BP+SI],AX
   9EC8:0E51 50            PUSH    AX
   9EC8:0E52 0002          ADD [BP+SI],AL
   9EC8:0E54 025000        ADD DL,[BX+SI+00]
   9EC8:0E57 0302          ADD AX,[BP+SI]
   9EC8:0E59 50            PUSH    AX
   9EC8:0E5A 0004          ADD [SI],AL
   9EC8:0E5C 025000        ADD DL,[BX+SI+00]
   9EC8:0E5F 050250        ADD AX,5002
   9EC8:0E62 00060250      ADD [5002],AL
   9EC8:0E66 0007          ADD [BX],AL
   9EC8:0E68 025000        ADD DL,[BX+SI+00]
   9EC8:0E6B 0802          OR  [BP+SI],AL
   9EC8:0E6D 50            PUSH    AX
   9EC8:0E6E 0009          ADD [BX+DI],CL
   9EC8:0E70 025000        ADD DL,[BX+SI+00]
   9EC8:0E73 0A02          OR  AL,[BP+SI]
   9EC8:0E75 DC00              FADD    QWORD PTR [BX+SI]
   9EC8:0E77 7D0E          JGE 0E87
   9EC8:0E79 80017D        ADD BYTE PTR [BX+DI],7D
   9EC8:0E7C 0E            PUSH    CS
   9EC8:0E7D 0100          ADD [BX+SI],AX
   9EC8:0E7F 0304          ADD AX,[SI]
   9EC8:0E81 2C03          SUB AL,03
   9EC8:0E83 0100          ADD [BX+SI],AX
   9EC8:0E85 FA            CLI
   9EC8:0E86 B4CD          MOV AH,CD
   9EC8:0E88 20CC          AND AH,CL
   9EC8:0E8A 00360005      ADD [0500],DH
   9EC8:0E8E 00A00024      ADD [BX+SI+2400],AH
   9EC8:0E92 03FF          ADD DI,DI
   9EC8:0E94 FF2A          JMP FAR [BP+SI]
   9EC8:0E96 06            PUSH    ES
   9EC8:0E97 0030          ADD [BX+SI],DH
   9EC8:0E99 0000          ADD [BX+SI],AL
   9EC8:0E9B 0A1D          OR  BL,[DI]
   9EC8:0E9D 0000          ADD [BX+SI],AL
   9EC8:0E9F 1E            PUSH    DS
   9EC8:0EA0 0000          ADD [BX+SI],AL
   9EC8:0EA2 0001          ADD [BX+DI],AL
   9EC8:0EA4 0018          ADD [BX+SI],BL
   9EC8:0EA6 1D0000        SBB AX,0000
   9EC8:0EA9 E61D          OUT 1D,AL
   9EC8:0EAB 0000          ADD [BX+SI],AL
   9EC8:0EAD 041E          ADD AL,1E
   9EC8:0EAF 0000          ADD [BX+SI],AL
   9EC8:0EB1 0000          ADD [BX+SI],AL
   9EC8:0EB3 6A            DB  6A
   9EC8:0EB4 0414          ADD AL,14
   9EC8:0EB6 146F          ADC AL,6F
   9EC8:0EB8 0400          ADD AL,00
   9EC8:0EBA 0000          ADD [BX+SI],AL
   9EC8:0EBC 0000          ADD [BX+SI],AL
   9EC8:0EBE 0000          ADD [BX+SI],AL
   9EC8:0EC0 0000          ADD [BX+SI],AL
   9EC8:0EC2 0000          ADD [BX+SI],AL
   9EC8:0EC4 0000          ADD [BX+SI],AL
   9EC8:0EC6 00FF          ADD BH,BH
